; Function Attrs: mustprogress nofree norecurse nosync nounwind willreturn memory(none) uwtable
define dso_local i64 @_ZNK4llvm22AArch64GenRegisterInfo30composeSubRegIndexLaneMaskImplEjNS_11LaneBitmaskE(ptr nocapture nonnull readnone align 8 %0, i32 noundef %1, i64 %2) unnamed_addr #0 align 2 {
  %4 = add i32 %1, -1
  %5 = zext i32 %4 to i64
  %6 = getelementptr inbounds [153 x i8], ptr @_ZN4llvmL18CompositeSequencesE, i64 0, i64 %5
  %7 = load i8, ptr %6, align 1
  %8 = zext i8 %7 to i64
  %9 = getelementptr inbounds [198 x %"struct.llvm::MaskRolOp"], ptr @_ZN4llvmL24LaneMaskComposeSequencesE, i64 0, i64 %8
  %10 = load i64, ptr %9, align 16
  %.not1718 = icmp eq i64 %10, 0
  br i1 %.not1718, label %._crit_edge, label %.lr.ph

.lr.ph:                                           ; preds = %3, %22
  %11 = phi i64 [ %24, %22 ], [ %10, %3 ]
  %.020 = phi ptr [ %23, %22 ], [ %9, %3 ]
  %.sroa.014.019 = phi i64 [ %.sroa.014.1, %22 ], [ 0, %3 ]
  %12 = and i64 %11, %2
  %13 = getelementptr inbounds nuw i8, ptr %.020, i64 8
  %14 = load i8, ptr %13, align 8
  %.not = icmp eq i8 %14, 0
  br i1 %.not, label %22, label %15

15:                                               ; preds = %.lr.ph
  %16 = zext i8 %14 to i64
  %17 = shl i64 %12, %16
  %18 = sub nsw i64 64, %16
  %19 = and i64 %18, 4294967295
  %20 = lshr i64 %12, %19
  %21 = or i64 %20, %17
  br label %22

22:                                               ; preds = %.lr.ph, %15
  %.pn = phi i64 [ %21, %15 ], [ %12, %.lr.ph ]
  %.sroa.014.1 = or i64 %.pn, %.sroa.014.019
  %23 = getelementptr inbounds i8, ptr %.020, i64 16
  %24 = load i64, ptr %23, align 8
  %.not17 = icmp eq i64 %24, 0
  br i1 %.not17, label %._crit_edge, label %.lr.ph, !llvm.loop !4

._crit_edge:                                      ; preds = %22, %3
  %.sroa.014.0.lcssa = phi i64 [ 0, %3 ], [ %.sroa.014.1, %22 ]
  ret i64 %.sroa.014.0.lcssa
}